target datalayout = "e-m:e-p270:32:32-p271:32:32-p272:64:64-i64:64-i128:128-f80:128-n8:16:32:64-S128"
target triple = "x86_64-pc-linux-gnu"

@.str.35 = private unnamed_addr constant [16 x i8] c"/tmp/lua_XXXXXX\00", align 1
@.str.36 = private unnamed_addr constant [37 x i8] c"unable to generate a unique filename\00", align 1

; Function Attrs: nounwind uwtable
define internal i32 @os_tmpname(ptr noundef %0) #0 {
  %2 = alloca i32, align 4
  %3 = alloca ptr, align 8
  %4 = alloca [32 x i8], align 16
  %5 = alloca i32, align 4
  %6 = alloca i32, align 4
  store ptr %0, ptr %3, align 8, !tbaa !4
  call void @llvm.lifetime.start.p0(i64 32, ptr %4) #9
  call void @llvm.lifetime.start.p0(i64 4, ptr %5) #9
  %7 = getelementptr inbounds [32 x i8], ptr %4, i64 0, i64 0
  %8 = call ptr @strcpy(ptr noundef %7, ptr noundef @.str.35) #9
  %9 = getelementptr inbounds [32 x i8], ptr %4, i64 0, i64 0
  %10 = call i32 @mkstemp64(ptr noundef %9)
  store i32 %10, ptr %5, align 4, !tbaa !20
  %11 = load i32, ptr %5, align 4, !tbaa !20
  %12 = icmp ne i32 %11, -1
  br i1 %12, label %13, label %16

13:                                               ; preds = %1
  %14 = load i32, ptr %5, align 4, !tbaa !20
  %15 = call i32 @close(i32 noundef %14)
  br label %16

16:                                               ; preds = %13, %1
  %17 = load i32, ptr %5, align 4, !tbaa !20
  %18 = icmp eq i32 %17, -1
  %19 = zext i1 %18 to i32
  store i32 %19, ptr %5, align 4, !tbaa !20
  %20 = load i32, ptr %5, align 4, !tbaa !20
  %21 = icmp ne i32 %20, 0
  %22 = zext i1 %21 to i32
  %23 = sext i32 %22 to i64
  %24 = call i64 @llvm.expect.i64(i64 %23, i64 0)
  %25 = icmp ne i64 %24, 0
  br i1 %25, label %26, label %29

26:                                               ; preds = %16
  %27 = load ptr, ptr %3, align 8, !tbaa !4
  %28 = call i32 (ptr, ptr, ...) @luaL_error(ptr noundef %27, ptr noundef @.str.36)
  store i32 %28, ptr %2, align 4
  store i32 1, ptr %6, align 4
  br label %33

29:                                               ; preds = %16
  %30 = load ptr, ptr %3, align 8, !tbaa !4
  %31 = getelementptr inbounds [32 x i8], ptr %4, i64 0, i64 0
  %32 = call ptr @lua_pushstring(ptr noundef %30, ptr noundef %31)
  store i32 1, ptr %2, align 4
  store i32 1, ptr %6, align 4
  br label %33

33:                                               ; preds = %29, %26
  call void @llvm.lifetime.end.p0(i64 4, ptr %5) #9
  call void @llvm.lifetime.end.p0(i64 32, ptr %4) #9
  %34 = load i32, ptr %2, align 4
  ret i32 %34
}