; Function Attrs: nounwind uwtable
define internal i32 @os_tmpname(ptr noundef %0) #0 {
  %2 = alloca [32 x i8], align 16
  call void @llvm.lifetime.start.p0(i64 32, ptr nonnull %2) #12
  call void @llvm.memcpy.p0.p0.i64(ptr noundef nonnull align 16 dereferenceable(16) %2, ptr noundef nonnull align 1 dereferenceable(16) @.str.35, i64 16, i1 false) #12
  %3 = call i32 @mkstemp64(ptr noundef nonnull %2) #12
  %cond = icmp eq i32 %3, -1
  br i1 %cond, label %7, label %4, !prof !27

4:                                                ; preds = %1
  %5 = call i32 @close(i32 noundef %3) #12
  %6 = call ptr @lua_pushstring(ptr noundef %0, ptr noundef nonnull %2) #12
  br label %9

7:                                                ; preds = %1
  %8 = call i32 (ptr, ptr, ...) @luaL_error(ptr noundef %0, ptr noundef nonnull @.str.36) #12
  br label %9

9:                                                ; preds = %4, %7
  %.0 = phi i32 [ %8, %7 ], [ 1, %4 ]
  call void @llvm.lifetime.end.p0(i64 32, ptr nonnull %2) #12
  ret i32 %.0
}